ccopy_reg
_reconstructor
p0
(cpandas.core.frame
DataFrame
p1
c__builtin__
object
p2
Ntp3
Rp4
g0
(cpandas.core.internals
BlockManager
p5
g2
Ntp6
Rp7
((lp8
cpandas.core.index
_new_Index
p9
(cpandas.core.index
Index
p10
(dp11
S'data'
p12
cnumpy.core.multiarray
_reconstruct
p13
(cnumpy
ndarray
p14
(I0
tp15
S'b'
p16
tp17
Rp18
(I1
(L3L
tp19
cnumpy
dtype
p20
(S'O8'
p21
I0
I1
tp22
Rp23
(I3
S'|'
p24
NNNI-1
I-1
I63
tp25
bI00
(lp26
S'n'
p27
aS'n_alive'
p28
aS'fraction'
p29
atp30
bsS'name'
p31
Nstp32
Rp33
ag9
(g10
(dp34
g12
g13
(g14
(I0
tp35
g16
tp36
Rp37
(I1
(L3L
tp38
g23
I00
(lp39
S'B1'
p40
aS'B2'
p41
aS'B3'
p42
atp43
bsg31
Nstp44
Rp45
a(lp46
g13
(g14
(I0
tp47
g16
tp48
Rp49
(I1
(L1L
L3L
tp50
g20
(S'f8'
p51
I0
I1
tp52
Rp53
(I3
S'<'
p54
NNNI-1
I-1
I0
tp55
bI00
S'\x8c\x13 \xda2eo@L\x861\xd9/\xbea@\xf1\xf1\x91\xa5%\xaa3@'
p56
tp57
bag13
(g14
(I0
tp58
g16
tp59
Rp60
(I1
(L1L
L3L
tp61
g20
(S'i8'
p62
I0
I1
tp63
Rp64
(I3
S'<'
p65
NNNI-1
I-1
I0
tp66
bI00
S'\xec\x00\x00\x00\x00\x00\x00\x00\x88\x00\x00\x00\x00\x00\x00\x00\x13\x00\x00\x00\x00\x00\x00\x00'
p67
tp68
bag13
(g14
(I0
tp69
g16
tp70
Rp71
(I1
(L1L
L3L
tp72
g53
I00
S'\xf3\xc2\x83~\x8alN@\x94\xc6\xfc\xbd\xa81A@\xc8\xb3\xfb\x1bf\x0e\x13@'
p73
tp74
ba(lp75
g9
(g10
(dp76
g12
g13
(g14
(I0
tp77
g16
tp78
Rp79
(I1
(L1L
tp80
g23
I00
(lp81
g28
atp82
bsg31
Nstp83
Rp84
ag9
(g10
(dp85
g12
g13
(g14
(I0
tp86
g16
tp87
Rp88
(I1
(L1L
tp89
g23
I00
(lp90
g27
atp91
bsg31
Nstp92
Rp93
ag9
(g10
(dp94
g12
g13
(g14
(I0
tp95
g16
tp96
Rp97
(I1
(L1L
tp98
g23
I00
(lp99
g29
atp100
bsg31
Nstp101
Rp102
a(dp103
S'0.14.1'
p104
(dp105
S'axes'
p106
g8
sS'blocks'
p107
(lp108
(dp109
S'mgr_locs'
p110
c__builtin__
slice
p111
(L1L
L2L
I1
tp112
Rp113
sS'values'
p114
g49
sa(dp115
g110
g111
(L0L
L1L
I1
tp116
Rp117
sg114
g60
sa(dp118
g110
g111
(I2
I3
I1
tp119
Rp120
sg114
g71
sasstp121
bb.