ccopy_reg
_reconstructor
p0
(cpandas.core.frame
DataFrame
p1
c__builtin__
object
p2
Ntp3
Rp4
g0
(cpandas.core.internals
BlockManager
p5
g2
Ntp6
Rp7
((lp8
cpandas.core.index
_new_Index
p9
(cpandas.core.index
Index
p10
(dp11
S'data'
p12
cnumpy.core.multiarray
_reconstruct
p13
(cnumpy
ndarray
p14
(I0
tp15
S'b'
p16
tp17
Rp18
(I1
(L3L
tp19
cnumpy
dtype
p20
(S'O8'
p21
I0
I1
tp22
Rp23
(I3
S'|'
p24
NNNI-1
I-1
I63
tp25
bI00
(lp26
S'n'
p27
aS'n_alive'
p28
aS'fraction'
p29
atp30
bsS'name'
p31
Nstp32
Rp33
ag9
(g10
(dp34
g12
g13
(g14
(I0
tp35
g16
tp36
Rp37
(I1
(L5L
tp38
g23
I00
(lp39
S'B4'
p40
aS'B5'
p41
aS'B1'
p42
aS'B2'
p43
aS'B3'
p44
atp45
bsg31
Nstp46
Rp47
a(lp48
g13
(g14
(I0
tp49
g16
tp50
Rp51
(I1
(L1L
L5L
tp52
g20
(S'f8'
p53
I0
I1
tp54
Rp55
(I3
S'<'
p56
NNNI-1
I-1
I0
tp57
bI00
S'\xaa\x8fO\xb6o\xc8\xbb@\xf4:$X\x12\xe4\xce@\x13\x11,\xb6\x99\x92\xe6@6\x80u\xa1\xf9g\xca@\x80\x04\xb5-j\n\xcd@'
p58
tp59
bag13
(g14
(I0
tp60
g16
tp61
Rp62
(I1
(L1L
L5L
tp63
g20
(S'i8'
p64
I0
I1
tp65
Rp66
(I3
S'<'
p67
NNNI-1
I-1
I0
tp68
bI00
S'R\x1c\x00\x00\x00\x00\x00\x00Gd\x00\x00\x00\x00\x00\x00\xbb\xa9\x00\x00\x00\x00\x00\x00\xca2\x00\x00\x00\x00\x00\x00\xfc8\x00\x00\x00\x00\x00\x00'
p69
tp70
bag13
(g14
(I0
tp71
g16
tp72
Rp73
(I1
(L1L
L5L
tp74
g55
I00
S'\xf2\xc7#\xcaX*\x1d@\x08\xa6\xa9E\xc960@J\xb5\x97\xd9#\xb2G@\xfc\xe00\xeaX\xb8+@\xd7\x19\x0b\xbfX|.@'
p75
tp76
ba(lp77
g9
(g10
(dp78
g12
g13
(g14
(I0
tp79
g16
tp80
Rp81
(I1
(L1L
tp82
g23
I00
(lp83
g28
atp84
bsg31
Nstp85
Rp86
ag9
(g10
(dp87
g12
g13
(g14
(I0
tp88
g16
tp89
Rp90
(I1
(L1L
tp91
g23
I00
(lp92
g27
atp93
bsg31
Nstp94
Rp95
ag9
(g10
(dp96
g12
g13
(g14
(I0
tp97
g16
tp98
Rp99
(I1
(L1L
tp100
g23
I00
(lp101
g29
atp102
bsg31
Nstp103
Rp104
a(dp105
S'0.14.1'
p106
(dp107
S'axes'
p108
g8
sS'blocks'
p109
(lp110
(dp111
S'mgr_locs'
p112
c__builtin__
slice
p113
(L1L
L2L
I1
tp114
Rp115
sS'values'
p116
g51
sa(dp117
g112
g113
(L0L
L1L
I1
tp118
Rp119
sg116
g62
sa(dp120
g112
g113
(I2
I3
I1
tp121
Rp122
sg116
g73
sasstp123
bb.