ccopy_reg
_reconstructor
p0
(cpandas.core.frame
DataFrame
p1
c__builtin__
object
p2
Ntp3
Rp4
g0
(cpandas.core.internals
BlockManager
p5
g2
Ntp6
Rp7
((lp8
cpandas.core.index
_new_Index
p9
(cpandas.core.index
Index
p10
(dp11
S'data'
p12
cnumpy.core.multiarray
_reconstruct
p13
(cnumpy
ndarray
p14
(I0
tp15
S'b'
p16
tp17
Rp18
(I1
(L3L
tp19
cnumpy
dtype
p20
(S'O8'
p21
I0
I1
tp22
Rp23
(I3
S'|'
p24
NNNI-1
I-1
I63
tp25
bI00
(lp26
S'n'
p27
aS'n_alive'
p28
aS'fraction'
p29
atp30
bsS'name'
p31
Nstp32
Rp33
ag9
(g10
(dp34
g12
g13
(g14
(I0
tp35
g16
tp36
Rp37
(I1
(L1L
tp38
g23
I00
(lp39
S'B5'
p40
atp41
bsg31
Nstp42
Rp43
a(lp44
g13
(g14
(I0
tp45
g16
tp46
Rp47
(I1
(L1L
L1L
tp48
g20
(S'f8'
p49
I0
I1
tp50
Rp51
(I3
S'<'
p52
NNNI-1
I-1
I0
tp53
bI00
S'{B\xd3\xfd,\xb3\x13@'
p54
tp55
bag13
(g14
(I0
tp56
g16
tp57
Rp58
(I1
(L1L
L1L
tp59
g20
(S'i8'
p60
I0
I1
tp61
Rp62
(I3
S'<'
p63
NNNI-1
I-1
I0
tp64
bI00
S'\x05\x00\x00\x00\x00\x00\x00\x00'
p65
tp66
bag13
(g14
(I0
tp67
g16
tp68
Rp69
(I1
(L1L
L1L
tp70
g51
I00
S'\x00\x00\x00\x00\x00\x00Y@'
p71
tp72
ba(lp73
g9
(g10
(dp74
g12
g13
(g14
(I0
tp75
g16
tp76
Rp77
(I1
(L1L
tp78
g23
I00
(lp79
g28
atp80
bsg31
Nstp81
Rp82
ag9
(g10
(dp83
g12
g13
(g14
(I0
tp84
g16
tp85
Rp86
(I1
(L1L
tp87
g23
I00
(lp88
g27
atp89
bsg31
Nstp90
Rp91
ag9
(g10
(dp92
g12
g13
(g14
(I0
tp93
g16
tp94
Rp95
(I1
(L1L
tp96
g23
I00
(lp97
g29
atp98
bsg31
Nstp99
Rp100
a(dp101
S'0.14.1'
p102
(dp103
S'axes'
p104
g8
sS'blocks'
p105
(lp106
(dp107
S'mgr_locs'
p108
c__builtin__
slice
p109
(L1L
L2L
I1
tp110
Rp111
sS'values'
p112
g47
sa(dp113
g108
g109
(L0L
L1L
I1
tp114
Rp115
sg112
g58
sa(dp116
g108
g109
(I2
I3
I1
tp117
Rp118
sg112
g69
sasstp119
bb.