ccopy_reg
_reconstructor
p0
(cpandas.core.frame
DataFrame
p1
c__builtin__
object
p2
Ntp3
Rp4
g0
(cpandas.core.internals
BlockManager
p5
g2
Ntp6
Rp7
((lp8
cpandas.core.index
_new_Index
p9
(cpandas.core.index
Index
p10
(dp11
S'data'
p12
cnumpy.core.multiarray
_reconstruct
p13
(cnumpy
ndarray
p14
(I0
tp15
S'b'
p16
tp17
Rp18
(I1
(L3L
tp19
cnumpy
dtype
p20
(S'O8'
p21
I0
I1
tp22
Rp23
(I3
S'|'
p24
NNNI-1
I-1
I63
tp25
bI00
(lp26
S'n'
p27
aS'n_alive'
p28
aS'fraction'
p29
atp30
bsS'name'
p31
Nstp32
Rp33
ag9
(g10
(dp34
g12
g13
(g14
(I0
tp35
g16
tp36
Rp37
(I1
(L4L
tp38
g23
I00
(lp39
S'B4'
p40
aS'B1'
p41
aS'B2'
p42
aS'B3'
p43
atp44
bsg31
Nstp45
Rp46
a(lp47
g13
(g14
(I0
tp48
g16
tp49
Rp50
(I1
(L1L
L4L
tp51
g20
(S'f8'
p52
I0
I1
tp53
Rp54
(I3
S'<'
p55
NNNI-1
I-1
I0
tp56
bI00
S'\x9dW\xf68\x80\nG@\x95\xb7\xb4)[I\x97@8\x83:i\xe1kq@4\xf8H\xda?\xdb`@'
p57
tp58
bag13
(g14
(I0
tp59
g16
tp60
Rp61
(I1
(L1L
L4L
tp62
g20
(S'i8'
p63
I0
I1
tp64
Rp65
(I3
S'<'
p66
NNNI-1
I-1
I0
tp67
bI00
S'/\x00\x00\x00\x00\x00\x00\x00x\x05\x00\x00\x00\x00\x00\x00\x0c\x01\x00\x00\x00\x00\x00\x00\x84\x00\x00\x00\x00\x00\x00\x00'
p68
tp69
bag13
(g14
(I0
tp70
g16
tp71
Rp72
(I1
(L1L
L4L
tp73
g54
I00
S'\n\x11\xb7\x0c\xc2\xe7\x02@\xec\x1c"\xc5T\x1bS@\xd9u\xea\xb0\xb8\x96,@\x07\xbd\xadEa\xa9\x1b@'
p74
tp75
ba(lp76
g9
(g10
(dp77
g12
g13
(g14
(I0
tp78
g16
tp79
Rp80
(I1
(L1L
tp81
g23
I00
(lp82
g28
atp83
bsg31
Nstp84
Rp85
ag9
(g10
(dp86
g12
g13
(g14
(I0
tp87
g16
tp88
Rp89
(I1
(L1L
tp90
g23
I00
(lp91
g27
atp92
bsg31
Nstp93
Rp94
ag9
(g10
(dp95
g12
g13
(g14
(I0
tp96
g16
tp97
Rp98
(I1
(L1L
tp99
g23
I00
(lp100
g29
atp101
bsg31
Nstp102
Rp103
a(dp104
S'0.14.1'
p105
(dp106
S'axes'
p107
g8
sS'blocks'
p108
(lp109
(dp110
S'mgr_locs'
p111
c__builtin__
slice
p112
(L1L
L2L
I1
tp113
Rp114
sS'values'
p115
g50
sa(dp116
g111
g112
(L0L
L1L
I1
tp117
Rp118
sg115
g61
sa(dp119
g111
g112
(I2
I3
I1
tp120
Rp121
sg115
g72
sasstp122
bb.