ccopy_reg
_reconstructor
p0
(cpandas.core.frame
DataFrame
p1
c__builtin__
object
p2
Ntp3
Rp4
g0
(cpandas.core.internals
BlockManager
p5
g2
Ntp6
Rp7
((lp8
cpandas.core.index
_new_Index
p9
(cpandas.core.index
Index
p10
(dp11
S'data'
p12
cnumpy.core.multiarray
_reconstruct
p13
(cnumpy
ndarray
p14
(I0
tp15
S'b'
p16
tp17
Rp18
(I1
(L3L
tp19
cnumpy
dtype
p20
(S'O8'
p21
I0
I1
tp22
Rp23
(I3
S'|'
p24
NNNI-1
I-1
I63
tp25
bI00
(lp26
S'n'
p27
aS'n_alive'
p28
aS'fraction'
p29
atp30
bsS'name'
p31
Nstp32
Rp33
ag9
(g10
(dp34
g12
g13
(g14
(I0
tp35
g16
tp36
Rp37
(I1
(L2L
tp38
g23
I00
(lp39
S'B5'
p40
aS'B6'
p41
atp42
bsg31
Nstp43
Rp44
a(lp45
g13
(g14
(I0
tp46
g16
tp47
Rp48
(I1
(L1L
L2L
tp49
g20
(S'f8'
p50
I0
I1
tp51
Rp52
(I3
S'<'
p53
NNNI-1
I-1
I0
tp54
bI00
S'h\x89P\xb6r4"@\xfa\x1e\xfb\xf1*\x8b!@'
p55
tp56
bag13
(g14
(I0
tp57
g16
tp58
Rp59
(I1
(L1L
L2L
tp60
g20
(S'i8'
p61
I0
I1
tp62
Rp63
(I3
S'<'
p64
NNNI-1
I-1
I0
tp65
bI00
S'\n\x00\x00\x00\x00\x00\x00\x00!\x00\x00\x00\x00\x00\x00\x00'
p66
tp67
bag13
(g14
(I0
tp68
g16
tp69
Rp70
(I1
(L1L
L2L
tp71
g52
I00
S'S\x17\x13\x01bvI@\xad\xe8\xec\xfe\x9d\x89H@'
p72
tp73
ba(lp74
g9
(g10
(dp75
g12
g13
(g14
(I0
tp76
g16
tp77
Rp78
(I1
(L1L
tp79
g23
I00
(lp80
g28
atp81
bsg31
Nstp82
Rp83
ag9
(g10
(dp84
g12
g13
(g14
(I0
tp85
g16
tp86
Rp87
(I1
(L1L
tp88
g23
I00
(lp89
g27
atp90
bsg31
Nstp91
Rp92
ag9
(g10
(dp93
g12
g13
(g14
(I0
tp94
g16
tp95
Rp96
(I1
(L1L
tp97
g23
I00
(lp98
g29
atp99
bsg31
Nstp100
Rp101
a(dp102
S'0.14.1'
p103
(dp104
S'axes'
p105
g8
sS'blocks'
p106
(lp107
(dp108
S'mgr_locs'
p109
c__builtin__
slice
p110
(L1L
L2L
I1
tp111
Rp112
sS'values'
p113
g48
sa(dp114
g109
g110
(L0L
L1L
I1
tp115
Rp116
sg113
g59
sa(dp117
g109
g110
(I2
I3
I1
tp118
Rp119
sg113
g70
sasstp120
bb.