ccopy_reg
_reconstructor
p0
(cpandas.core.frame
DataFrame
p1
c__builtin__
object
p2
Ntp3
Rp4
g0
(cpandas.core.internals
BlockManager
p5
g2
Ntp6
Rp7
((lp8
cpandas.core.index
_new_Index
p9
(cpandas.core.index
Index
p10
(dp11
S'data'
p12
cnumpy.core.multiarray
_reconstruct
p13
(cnumpy
ndarray
p14
(I0
tp15
S'b'
p16
tp17
Rp18
(I1
(L3L
tp19
cnumpy
dtype
p20
(S'O8'
p21
I0
I1
tp22
Rp23
(I3
S'|'
p24
NNNI-1
I-1
I63
tp25
bI00
(lp26
S'n'
p27
aS'n_alive'
p28
aS'fraction'
p29
atp30
bsS'name'
p31
Nstp32
Rp33
ag9
(g10
(dp34
g12
g13
(g14
(I0
tp35
g16
tp36
Rp37
(I1
(L6L
tp38
g23
I00
(lp39
S'B4'
p40
aS'B5'
p41
aS'B6'
p42
aS'B1'
p43
aS'B2'
p44
aS'B3'
p45
atp46
bsg31
Nstp47
Rp48
a(lp49
g13
(g14
(I0
tp50
g16
tp51
Rp52
(I1
(L1L
L6L
tp53
g20
(S'f8'
p54
I0
I1
tp55
Rp56
(I3
S'<'
p57
NNNI-1
I-1
I0
tp58
bI00
S'%O\x94C\xaa!\xa1@\xbd\xc8\x12\x08XL\x9e@\xd9\x13\xdc#\xbd\xef\xb3@d\x08\xe8\x93M\x94\xb9@\xc4\x9c\xe3\xd1\xc8:\x9a@\xa4\x94\xf8\x1fm\xb0\xa2@'
p59
tp60
bag13
(g14
(I0
tp61
g16
tp62
Rp63
(I1
(L1L
L6L
tp64
g20
(S'i8'
p65
I0
I1
tp66
Rp67
(I3
S'<'
p68
NNNI-1
I-1
I0
tp69
bI00
S'\xbd\x08\x00\x00\x00\x00\x00\x008\x08\x00\x00\x00\x00\x00\x00`6\x00\x00\x00\x00\x00\x00\x05\x18\x00\x00\x00\x00\x00\x00Q\x06\x00\x00\x00\x00\x00\x00.\t\x00\x00\x00\x00\x00\x00'
p70
tp71
bag13
(g14
(I0
tp72
g16
tp73
Rp74
(I1
(L1L
L6L
tp75
g56
I00
S'\xf2\x15\xd1D\xaf\x16&@p\xddx]X\x88#@\xcb\x1c\x1e\x99\x89\xb49@\x19\x87\xfa4\x8c}@@[\xe6W\xe6\xdf\xe8 @L\xd07q\xd4\x18(@'
p76
tp77
ba(lp78
g9
(g10
(dp79
g12
g13
(g14
(I0
tp80
g16
tp81
Rp82
(I1
(L1L
tp83
g23
I00
(lp84
g28
atp85
bsg31
Nstp86
Rp87
ag9
(g10
(dp88
g12
g13
(g14
(I0
tp89
g16
tp90
Rp91
(I1
(L1L
tp92
g23
I00
(lp93
g27
atp94
bsg31
Nstp95
Rp96
ag9
(g10
(dp97
g12
g13
(g14
(I0
tp98
g16
tp99
Rp100
(I1
(L1L
tp101
g23
I00
(lp102
g29
atp103
bsg31
Nstp104
Rp105
a(dp106
S'0.14.1'
p107
(dp108
S'axes'
p109
g8
sS'blocks'
p110
(lp111
(dp112
S'mgr_locs'
p113
c__builtin__
slice
p114
(L1L
L2L
I1
tp115
Rp116
sS'values'
p117
g52
sa(dp118
g113
g114
(L0L
L1L
I1
tp119
Rp120
sg117
g63
sa(dp121
g113
g114
(I2
I3
I1
tp122
Rp123
sg117
g74
sasstp124
bb.